target datalayout = "e-m:e-p270:32:32-p271:32:32-p272:64:64-i64:64-i128:128-f80:128-n8:16:32:64-S128"
target triple = "x86_64-pc-linux-gnu"

%struct.JNIEnv_ = type { ptr }
%struct.JNINativeInterface_ = type { ptr, ptr, ptr, ptr, ptr, ptr, ptr, ptr, ptr, ptr, ptr, ptr, ptr, ptr, ptr, ptr, ptr, ptr, ptr, ptr, ptr, ptr, ptr, ptr, ptr, ptr, ptr, ptr, ptr, ptr, ptr, ptr, ptr, ptr, ptr, ptr, ptr, ptr, ptr, ptr, ptr, ptr, ptr, ptr, ptr, ptr, ptr, ptr, ptr, ptr, ptr, ptr, ptr, ptr, ptr, ptr, ptr, ptr, ptr, ptr, ptr, ptr, ptr, ptr, ptr, ptr, ptr, ptr, ptr, ptr, ptr, ptr, ptr, ptr, ptr, ptr, ptr, ptr, ptr, ptr, ptr, ptr, ptr, ptr, ptr, ptr, ptr, ptr, ptr, ptr, ptr, ptr, ptr, ptr, ptr, ptr, ptr, ptr, ptr, ptr, ptr, ptr, ptr, ptr, ptr, ptr, ptr, ptr, ptr, ptr, ptr, ptr, ptr, ptr, ptr, ptr, ptr, ptr, ptr, ptr, ptr, ptr, ptr, ptr, ptr, ptr, ptr, ptr, ptr, ptr, ptr, ptr, ptr, ptr, ptr, ptr, ptr, ptr, ptr, ptr, ptr, ptr, ptr, ptr, ptr, ptr, ptr, ptr, ptr, ptr, ptr, ptr, ptr, ptr, ptr, ptr, ptr, ptr, ptr, ptr, ptr, ptr, ptr, ptr, ptr, ptr, ptr, ptr, ptr, ptr, ptr, ptr, ptr, ptr, ptr, ptr, ptr, ptr, ptr, ptr, ptr, ptr, ptr, ptr, ptr, ptr, ptr, ptr, ptr, ptr, ptr, ptr, ptr, ptr, ptr, ptr, ptr, ptr, ptr, ptr, ptr, ptr, ptr, ptr, ptr, ptr, ptr, ptr, ptr, ptr, ptr, ptr, ptr, ptr, ptr, ptr, ptr, ptr, ptr, ptr, ptr, ptr, ptr, ptr, ptr, ptr, ptr, ptr, ptr, ptr, ptr, ptr, ptr, ptr, ptr }

@.str = private unnamed_addr constant [43 x i8] c"sun/jvm/hotspot/debugger/DebuggerException\00", align 1
@.str.17 = private unnamed_addr constant [24 x i8] c"cannot open binary file\00", align 1
@.str.18 = private unnamed_addr constant [24 x i8] c"cannot read binary file\00", align 1
@.str.19 = private unnamed_addr constant [49 x i8] c"debuggee is 32 bit, use 32 bit java for debugger\00", align 1

; Function Attrs: mustprogress uwtable
define linkonce_odr hidden noundef i32 @_ZN7JNIEnv_8ThrowNewEP7_jclassPKc(ptr noundef nonnull align 8 dereferenceable(8) %0, ptr noundef %1, ptr noundef %2) #0 comdat align 2 {
  %4 = alloca ptr, align 8
  %5 = alloca ptr, align 8
  %6 = alloca ptr, align 8
  store ptr %0, ptr %4, align 8
  store ptr %1, ptr %5, align 8
  store ptr %2, ptr %6, align 8
  %7 = load ptr, ptr %4, align 8
  %8 = getelementptr inbounds %struct.JNIEnv_, ptr %7, i32 0, i32 0
  %9 = load ptr, ptr %8, align 8
  %10 = getelementptr inbounds %struct.JNINativeInterface_, ptr %9, i32 0, i32 14
  %11 = load ptr, ptr %10, align 8
  %12 = load ptr, ptr %5, align 8
  %13 = load ptr, ptr %6, align 8
  %14 = call noundef i32 %11(ptr noundef %7, ptr noundef %12, ptr noundef %13)
  ret i32 %14
}

; Function Attrs: mustprogress uwtable
define linkonce_odr hidden noundef ptr @_ZN7JNIEnv_17ExceptionOccurredEv(ptr noundef nonnull align 8 dereferenceable(8) %0) #0 comdat align 2 {
  %2 = alloca ptr, align 8
  store ptr %0, ptr %2, align 8
  %3 = load ptr, ptr %2, align 8
  %4 = getelementptr inbounds %struct.JNIEnv_, ptr %3, i32 0, i32 0
  %5 = load ptr, ptr %4, align 8
  %6 = getelementptr inbounds %struct.JNINativeInterface_, ptr %5, i32 0, i32 15
  %7 = load ptr, ptr %6, align 8
  %8 = call noundef ptr %7(ptr noundef %3)
  ret ptr %8
}

; Function Attrs: mustprogress uwtable
define linkonce_odr hidden noundef ptr @_ZN7JNIEnv_9FindClassEPKc(ptr noundef nonnull align 8 dereferenceable(8) %0, ptr noundef %1) #0 comdat align 2 {
  %3 = alloca ptr, align 8
  %4 = alloca ptr, align 8
  store ptr %0, ptr %3, align 8
  store ptr %1, ptr %4, align 8
  %5 = load ptr, ptr %3, align 8
  %6 = getelementptr inbounds %struct.JNIEnv_, ptr %5, i32 0, i32 0
  %7 = load ptr, ptr %6, align 8
  %8 = getelementptr inbounds %struct.JNINativeInterface_, ptr %7, i32 0, i32 6
  %9 = load ptr, ptr %8, align 8
  %10 = load ptr, ptr %4, align 8
  %11 = call noundef ptr %9(ptr noundef %5, ptr noundef %10)
  ret ptr %11
}

; Function Attrs: mustprogress uwtable
define hidden void @throw_new_debugger_exception(ptr noundef %0, ptr noundef %1) #0 {
  %3 = alloca ptr, align 8
  %4 = alloca ptr, align 8
  %5 = alloca ptr, align 8
  store ptr %0, ptr %3, align 8
  store ptr %1, ptr %4, align 8
  %6 = load ptr, ptr %3, align 8
  %7 = call noundef ptr @_ZN7JNIEnv_9FindClassEPKc(ptr noundef nonnull align 8 dereferenceable(8) %6, ptr noundef @.str)
  store ptr %7, ptr %5, align 8
  %8 = load ptr, ptr %3, align 8
  %9 = call noundef ptr @_ZN7JNIEnv_17ExceptionOccurredEv(ptr noundef nonnull align 8 dereferenceable(8) %8)
  %10 = icmp ne ptr %9, null
  br i1 %10, label %11, label %12

11:                                               ; preds = %2
  br label %17

12:                                               ; preds = %2
  %13 = load ptr, ptr %3, align 8
  %14 = load ptr, ptr %5, align 8
  %15 = load ptr, ptr %4, align 8
  %16 = call noundef i32 @_ZN7JNIEnv_8ThrowNewEP7_jclassPKc(ptr noundef nonnull align 8 dereferenceable(8) %13, ptr noundef %14, ptr noundef %15)
  br label %17

17:                                               ; preds = %12, %11
  ret void
}

; Function Attrs: mustprogress uwtable
define hidden void @_Z13verifyBitnessP7JNIEnv_PKc(ptr noundef %0, ptr noundef %1) #0 {
  %3 = alloca ptr, align 8
  %4 = alloca ptr, align 8
  %5 = alloca i32, align 4
  %6 = alloca [16 x i8], align 16
  %7 = alloca i32, align 4
  store ptr %0, ptr %3, align 8
  store ptr %1, ptr %4, align 8
  %8 = load ptr, ptr %4, align 8
  %9 = call i32 (ptr, i32, ...) @open64(ptr noundef %8, i32 noundef 0)
  store i32 %9, ptr %5, align 4
  %10 = load i32, ptr %5, align 4
  %11 = icmp slt i32 %10, 0
  br i1 %11, label %12, label %14

12:                                               ; preds = %2
  %13 = load ptr, ptr %3, align 8
  call void @throw_new_debugger_exception(ptr noundef %13, ptr noundef @.str.17)
  br label %31

14:                                               ; preds = %2
  %15 = load i32, ptr %5, align 4
  %16 = call i64 @read(i32 noundef %15, ptr noundef %6, i64 noundef 16)
  %17 = trunc i64 %16 to i32
  store i32 %17, ptr %7, align 4
  %18 = load i32, ptr %5, align 4
  %19 = call i32 @close(i32 noundef %18)
  %20 = load i32, ptr %7, align 4
  %21 = icmp slt i32 %20, 0
  br i1 %21, label %22, label %24

22:                                               ; preds = %14
  %23 = load ptr, ptr %3, align 8
  call void @throw_new_debugger_exception(ptr noundef %23, ptr noundef @.str.18)
  br label %31

24:                                               ; preds = %14
  %25 = getelementptr inbounds [16 x i8], ptr %6, i64 0, i64 4
  %26 = load i8, ptr %25, align 4
  %27 = zext i8 %26 to i32
  %28 = icmp ne i32 %27, 2
  br i1 %28, label %29, label %31

29:                                               ; preds = %24
  %30 = load ptr, ptr %3, align 8
  call void @throw_new_debugger_exception(ptr noundef %30, ptr noundef @.str.19)
  br label %31

31:                                               ; preds = %29, %24, %22, %12
  ret void
}