; Function Attrs: mustprogress uwtable
define hidden void @_Z13verifyBitnessP7JNIEnv_PKc(ptr noundef %0, ptr nocapture noundef readonly %1) local_unnamed_addr #0 {
  %3 = alloca [16 x i8], align 16
  %4 = tail call i32 (ptr, i32, ...) @open64(ptr noundef %1, i32 noundef 0)
  %5 = icmp slt i32 %4, 0
  br i1 %5, label %6, label %20

6:                                                ; preds = %2
  %7 = load ptr, ptr %0, align 8
  %8 = getelementptr inbounds i8, ptr %7, i64 48
  %9 = load ptr, ptr %8, align 8
  %10 = tail call noundef ptr %9(ptr noundef nonnull %0, ptr noundef nonnull @.str)
  %11 = load ptr, ptr %0, align 8
  %12 = getelementptr inbounds i8, ptr %11, i64 120
  %13 = load ptr, ptr %12, align 8
  %14 = tail call noundef ptr %13(ptr noundef nonnull %0)
  %.not.i = icmp eq ptr %14, null
  br i1 %.not.i, label %15, label %throw_new_debugger_exception.exit

15:                                               ; preds = %6
  %16 = load ptr, ptr %0, align 8
  %17 = getelementptr inbounds i8, ptr %16, i64 112
  %18 = load ptr, ptr %17, align 8
  %19 = tail call noundef i32 %18(ptr noundef nonnull %0, ptr noundef %10, ptr noundef nonnull @.str.17)
  br label %throw_new_debugger_exception.exit

20:                                               ; preds = %2
  %21 = call i64 @read(i32 noundef %4, ptr noundef nonnull %3, i64 noundef 16)
  %22 = tail call i32 @close(i32 noundef %4)
  %23 = and i64 %21, 2147483648
  %.not = icmp eq i64 %23, 0
  br i1 %.not, label %38, label %24

24:                                               ; preds = %20
  %25 = load ptr, ptr %0, align 8
  %26 = getelementptr inbounds i8, ptr %25, i64 48
  %27 = load ptr, ptr %26, align 8
  %28 = tail call noundef ptr %27(ptr noundef nonnull %0, ptr noundef nonnull @.str)
  %29 = load ptr, ptr %0, align 8
  %30 = getelementptr inbounds i8, ptr %29, i64 120
  %31 = load ptr, ptr %30, align 8
  %32 = tail call noundef ptr %31(ptr noundef nonnull %0)
  %.not.i8 = icmp eq ptr %32, null
  br i1 %.not.i8, label %33, label %throw_new_debugger_exception.exit

33:                                               ; preds = %24
  %34 = load ptr, ptr %0, align 8
  %35 = getelementptr inbounds i8, ptr %34, i64 112
  %36 = load ptr, ptr %35, align 8
  %37 = tail call noundef i32 %36(ptr noundef nonnull %0, ptr noundef %28, ptr noundef nonnull @.str.18)
  br label %throw_new_debugger_exception.exit

38:                                               ; preds = %20
  %39 = getelementptr inbounds i8, ptr %3, i64 4
  %40 = load i8, ptr %39, align 4
  %.not7 = icmp eq i8 %40, 2
  br i1 %.not7, label %throw_new_debugger_exception.exit, label %41

41:                                               ; preds = %38
  %42 = load ptr, ptr %0, align 8
  %43 = getelementptr inbounds i8, ptr %42, i64 48
  %44 = load ptr, ptr %43, align 8
  %45 = tail call noundef ptr %44(ptr noundef nonnull %0, ptr noundef nonnull @.str)
  %46 = load ptr, ptr %0, align 8
  %47 = getelementptr inbounds i8, ptr %46, i64 120
  %48 = load ptr, ptr %47, align 8
  %49 = tail call noundef ptr %48(ptr noundef nonnull %0)
  %.not.i10 = icmp eq ptr %49, null
  br i1 %.not.i10, label %50, label %throw_new_debugger_exception.exit

50:                                               ; preds = %41
  %51 = load ptr, ptr %0, align 8
  %52 = getelementptr inbounds i8, ptr %51, i64 112
  %53 = load ptr, ptr %52, align 8
  %54 = tail call noundef i32 %53(ptr noundef nonnull %0, ptr noundef %45, ptr noundef nonnull @.str.19)
  br label %throw_new_debugger_exception.exit

throw_new_debugger_exception.exit:                ; preds = %50, %41, %33, %24, %15, %6, %38
  ret void
}